target datalayout = "e-m:e-p270:32:32-p271:32:32-p272:64:64-i64:64-i128:128-f80:128-n8:16:32:64-S128"
target triple = "x86_64-pc-linux-gnu"

@ett_bacapp_tag = internal global i32 0, align 4
@ett_bacapp_value = internal global i32 0, align 4
@.str.2613 = private unnamed_addr constant [12 x i8] c"%s%f (Real)\00", align 1
@.str.3055 = private unnamed_addr constant [7 x i8] c"Date: \00", align 1
@.str.3056 = private unnamed_addr constant [7 x i8] c"Time: \00", align 1
@.str.3063 = private unnamed_addr constant [12 x i8] c"log status:\00", align 1
@.str.3064 = private unnamed_addr constant [15 x i8] c"notification: \00", align 1
@.str.3065 = private unnamed_addr constant [14 x i8] c"time-change: \00", align 1

; Function Attrs: null_pointer_is_valid sspstrong uwtable
define internal i32 @fTagHeader(ptr noundef %0, ptr noundef %1, i32 noundef %2, ptr noundef %3, ptr noundef %4, ptr noundef %5) #0 {
  %7 = alloca ptr, align 8
  %8 = alloca ptr, align 8
  %9 = alloca i32, align 4
  %10 = alloca ptr, align 8
  %11 = alloca ptr, align 8
  %12 = alloca ptr, align 8
  store ptr %0, ptr %7, align 8
  store ptr %1, ptr %8, align 8
  store i32 %2, ptr %9, align 4
  store ptr %3, ptr %10, align 8
  store ptr %4, ptr %11, align 8
  store ptr %5, ptr %12, align 8
  %13 = load ptr, ptr %7, align 8
  %14 = load ptr, ptr %8, align 8
  %15 = load i32, ptr %9, align 4
  %16 = load ptr, ptr %10, align 8
  %17 = load ptr, ptr %11, align 8
  %18 = load ptr, ptr %12, align 8
  %19 = call i32 @fTagHeaderTree(ptr noundef %13, ptr noundef %14, ptr noundef null, i32 noundef %15, ptr noundef %16, ptr noundef %17, ptr noundef %18)
  ret i32 %19
}

; Function Attrs: null_pointer_is_valid sspstrong uwtable
define internal i32 @fRealTag(ptr noundef %0, ptr noundef %1, ptr noundef %2, i32 noundef %3, ptr noundef %4) #0 {
  %6 = alloca ptr, align 8
  %7 = alloca ptr, align 8
  %8 = alloca ptr, align 8
  %9 = alloca i32, align 4
  %10 = alloca ptr, align 8
  %11 = alloca i8, align 1
  %12 = alloca i8, align 1
  %13 = alloca i32, align 4
  %14 = alloca i32, align 4
  %15 = alloca float, align 4
  %16 = alloca ptr, align 8
  store ptr %0, ptr %6, align 8
  store ptr %1, ptr %7, align 8
  store ptr %2, ptr %8, align 8
  store i32 %3, ptr %9, align 4
  store ptr %4, ptr %10, align 8
  call void @llvm.lifetime.start.p0(i64 1, ptr %11) #7
  call void @llvm.lifetime.start.p0(i64 1, ptr %12) #7
  call void @llvm.lifetime.start.p0(i64 4, ptr %13) #7
  call void @llvm.lifetime.start.p0(i64 4, ptr %14) #7
  call void @llvm.lifetime.start.p0(i64 4, ptr %15) #7
  call void @llvm.lifetime.start.p0(i64 8, ptr %16) #7
  %17 = load ptr, ptr %6, align 8
  %18 = load ptr, ptr %7, align 8
  %19 = load i32, ptr %9, align 4
  %20 = call i32 @fTagHeader(ptr noundef %17, ptr noundef %18, i32 noundef %19, ptr noundef %11, ptr noundef %12, ptr noundef %13)
  store i32 %20, ptr %14, align 4
  %21 = load ptr, ptr %6, align 8
  %22 = load i32, ptr %9, align 4
  %23 = load i32, ptr %14, align 4
  %24 = add i32 %22, %23
  %25 = call float @tvb_get_ntohieee_float(ptr noundef %21, i32 noundef %24)
  store float %25, ptr %15, align 4
  %26 = load ptr, ptr %8, align 8
  %27 = load ptr, ptr %6, align 8
  %28 = load i32, ptr %9, align 4
  %29 = load i32, ptr %14, align 4
  %30 = add i32 4, %29
  %31 = load i32, ptr @ett_bacapp_tag, align 4
  %32 = load ptr, ptr %10, align 8
  %33 = load float, ptr %15, align 4
  %34 = fpext float %33 to double
  %35 = call ptr (ptr, ptr, i32, i32, i32, ptr, ptr, ...) @proto_tree_add_subtree_format(ptr noundef %26, ptr noundef %27, i32 noundef %28, i32 noundef %30, i32 noundef %31, ptr noundef null, ptr noundef @.str.2613, ptr noundef %32, double noundef %34)
  store ptr %35, ptr %16, align 8
  %36 = load ptr, ptr %6, align 8
  %37 = load ptr, ptr %7, align 8
  %38 = load ptr, ptr %16, align 8
  %39 = load i32, ptr %9, align 4
  %40 = call i32 @fTagHeaderTree(ptr noundef %36, ptr noundef %37, ptr noundef %38, i32 noundef %39, ptr noundef %11, ptr noundef %12, ptr noundef %13)
  %41 = load i32, ptr %9, align 4
  %42 = load i32, ptr %14, align 4
  %43 = add i32 %41, %42
  %44 = add i32 %43, 4
  call void @llvm.lifetime.end.p0(i64 8, ptr %16) #7
  call void @llvm.lifetime.end.p0(i64 4, ptr %15) #7
  call void @llvm.lifetime.end.p0(i64 4, ptr %14) #7
  call void @llvm.lifetime.end.p0(i64 4, ptr %13) #7
  call void @llvm.lifetime.end.p0(i64 1, ptr %12) #7
  call void @llvm.lifetime.end.p0(i64 1, ptr %11) #7
  ret i32 %44
}

; Function Attrs: null_pointer_is_valid sspstrong uwtable
define internal i32 @fBitStringTagVS(ptr noundef %0, ptr noundef %1, ptr noundef %2, i32 noundef %3, ptr noundef %4, ptr noundef %5) #0 {
  %7 = alloca ptr, align 8
  %8 = alloca ptr, align 8
  %9 = alloca ptr, align 8
  %10 = alloca i32, align 4
  %11 = alloca ptr, align 8
  %12 = alloca ptr, align 8
  store ptr %0, ptr %7, align 8
  store ptr %1, ptr %8, align 8
  store ptr %2, ptr %9, align 8
  store i32 %3, ptr %10, align 4
  store ptr %4, ptr %11, align 8
  store ptr %5, ptr %12, align 8
  %13 = load ptr, ptr %7, align 8
  %14 = load ptr, ptr %8, align 8
  %15 = load ptr, ptr %9, align 8
  %16 = load i32, ptr %10, align 4
  %17 = load ptr, ptr %11, align 8
  %18 = load ptr, ptr %12, align 8
  %19 = call i32 @fBitStringTagVSBase(ptr noundef %13, ptr noundef %14, ptr noundef %15, i32 noundef %16, ptr noundef %17, ptr noundef %18, i1 noundef zeroext false)
  ret i32 %19
}

; Function Attrs: null_pointer_is_valid sspstrong uwtable
define internal i32 @fTagNo(ptr noundef %0, i32 noundef %1) #0 {
  %3 = alloca ptr, align 8
  %4 = alloca i32, align 4
  store ptr %0, ptr %3, align 8
  store i32 %1, ptr %4, align 4
  %5 = load ptr, ptr %3, align 8
  %6 = load i32, ptr %4, align 4
  %7 = call zeroext i8 @tvb_get_uint8(ptr noundef %5, i32 noundef %6)
  %8 = zext i8 %7 to i32
  %9 = ashr i32 %8, 4
  ret i32 %9
}

; Function Attrs: null_pointer_is_valid sspstrong uwtable
define internal i32 @fEventLogRecord(ptr noundef %0, ptr noundef %1, ptr noundef %2, i32 noundef %3) #0 {
  %5 = alloca i32, align 4
  %6 = alloca ptr, align 8
  %7 = alloca ptr, align 8
  %8 = alloca ptr, align 8
  %9 = alloca i32, align 4
  %10 = alloca i32, align 4
  %11 = alloca i8, align 1
  %12 = alloca i8, align 1
  %13 = alloca i32, align 4
  %14 = alloca ptr, align 8
  %15 = alloca i32, align 4
  store ptr %0, ptr %6, align 8
  store ptr %1, ptr %7, align 8
  store ptr %2, ptr %8, align 8
  store i32 %3, ptr %9, align 4
  call void @llvm.lifetime.start.p0(i64 4, ptr %10) #7
  store i32 0, ptr %10, align 4
  call void @llvm.lifetime.start.p0(i64 1, ptr %11) #7
  call void @llvm.lifetime.start.p0(i64 1, ptr %12) #7
  call void @llvm.lifetime.start.p0(i64 4, ptr %13) #7
  call void @llvm.lifetime.start.p0(i64 8, ptr %14) #7
  %16 = load ptr, ptr %8, align 8
  store ptr %16, ptr %14, align 8
  br label %17

17:                                               ; preds = %117, %4
  %18 = load ptr, ptr %6, align 8
  %19 = load i32, ptr %9, align 4
  %20 = call i32 @tvb_reported_length_remaining(ptr noundef %18, i32 noundef %19)
  %21 = icmp sgt i32 %20, 0
  br i1 %21, label %22, label %118

22:                                               ; preds = %17
  %23 = load i32, ptr %9, align 4
  store i32 %23, ptr %10, align 4
  %24 = load ptr, ptr %6, align 8
  %25 = load i32, ptr %9, align 4
  %26 = call i32 @fTagNo(ptr noundef %24, i32 noundef %25)
  switch i32 %26, label %110 [
    i32 0, label %27
    i32 1, label %52
  ]

27:                                               ; preds = %22
  %28 = load ptr, ptr %6, align 8
  %29 = load ptr, ptr %7, align 8
  %30 = load ptr, ptr %8, align 8
  %31 = load i32, ptr %9, align 4
  %32 = call i32 @fTagHeaderTree(ptr noundef %28, ptr noundef %29, ptr noundef %30, i32 noundef %31, ptr noundef %11, ptr noundef %12, ptr noundef %13)
  %33 = load i32, ptr %9, align 4
  %34 = add i32 %33, %32
  store i32 %34, ptr %9, align 4
  %35 = load ptr, ptr %6, align 8
  %36 = load ptr, ptr %7, align 8
  %37 = load ptr, ptr %8, align 8
  %38 = load i32, ptr %9, align 4
  %39 = call i32 @fDate(ptr noundef %35, ptr noundef %36, ptr noundef %37, i32 noundef %38, ptr noundef @.str.3055)
  store i32 %39, ptr %9, align 4
  %40 = load ptr, ptr %6, align 8
  %41 = load ptr, ptr %7, align 8
  %42 = load ptr, ptr %8, align 8
  %43 = load i32, ptr %9, align 4
  %44 = call i32 @fTime(ptr noundef %40, ptr noundef %41, ptr noundef %42, i32 noundef %43, ptr noundef @.str.3056)
  store i32 %44, ptr %9, align 4
  %45 = load ptr, ptr %6, align 8
  %46 = load ptr, ptr %7, align 8
  %47 = load ptr, ptr %8, align 8
  %48 = load i32, ptr %9, align 4
  %49 = call i32 @fTagHeaderTree(ptr noundef %45, ptr noundef %46, ptr noundef %47, i32 noundef %48, ptr noundef %11, ptr noundef %12, ptr noundef %13)
  %50 = load i32, ptr %9, align 4
  %51 = add i32 %50, %49
  store i32 %51, ptr %9, align 4
  br label %112

52:                                               ; preds = %22
  %53 = load ptr, ptr %6, align 8
  %54 = load ptr, ptr %7, align 8
  %55 = load ptr, ptr %8, align 8
  %56 = load i32, ptr %9, align 4
  %57 = call i32 @fTagHeaderTree(ptr noundef %53, ptr noundef %54, ptr noundef %55, i32 noundef %56, ptr noundef %11, ptr noundef %12, ptr noundef %13)
  %58 = load i32, ptr %9, align 4
  %59 = add i32 %58, %57
  store i32 %59, ptr %9, align 4
  %60 = load ptr, ptr %6, align 8
  %61 = load i32, ptr %9, align 4
  %62 = call i32 @fTagNo(ptr noundef %60, i32 noundef %61)
  switch i32 %62, label %100 [
    i32 0, label %63
    i32 1, label %69
    i32 2, label %94
  ]

63:                                               ; preds = %52
  %64 = load ptr, ptr %6, align 8
  %65 = load ptr, ptr %7, align 8
  %66 = load ptr, ptr %8, align 8
  %67 = load i32, ptr %9, align 4
  %68 = call i32 @fBitStringTagVS(ptr noundef %64, ptr noundef %65, ptr noundef %66, i32 noundef %67, ptr noundef @.str.3063, ptr noundef @BACnetLogStatus)
  store i32 %68, ptr %9, align 4
  br label %102

69:                                               ; preds = %52
  %70 = load ptr, ptr %8, align 8
  %71 = load ptr, ptr %6, align 8
  %72 = load i32, ptr %9, align 4
  %73 = load i32, ptr @ett_bacapp_value, align 4
  %74 = call ptr @proto_tree_add_subtree(ptr noundef %70, ptr noundef %71, i32 noundef %72, i32 noundef 1, i32 noundef %73, ptr noundef null, ptr noundef @.str.3064)
  store ptr %74, ptr %14, align 8
  %75 = load ptr, ptr %6, align 8
  %76 = load ptr, ptr %7, align 8
  %77 = load ptr, ptr %14, align 8
  %78 = load i32, ptr %9, align 4
  %79 = call i32 @fTagHeaderTree(ptr noundef %75, ptr noundef %76, ptr noundef %77, i32 noundef %78, ptr noundef %11, ptr noundef %12, ptr noundef %13)
  %80 = load i32, ptr %9, align 4
  %81 = add i32 %80, %79
  store i32 %81, ptr %9, align 4
  %82 = load ptr, ptr %6, align 8
  %83 = load ptr, ptr %7, align 8
  %84 = load ptr, ptr %14, align 8
  %85 = load i32, ptr %9, align 4
  %86 = call i32 @fConfirmedEventNotificationRequest(ptr noundef %82, ptr noundef %83, ptr noundef %84, i32 noundef %85)
  store i32 %86, ptr %9, align 4
  %87 = load ptr, ptr %6, align 8
  %88 = load ptr, ptr %7, align 8
  %89 = load ptr, ptr %14, align 8
  %90 = load i32, ptr %9, align 4
  %91 = call i32 @fTagHeaderTree(ptr noundef %87, ptr noundef %88, ptr noundef %89, i32 noundef %90, ptr noundef %11, ptr noundef %12, ptr noundef %13)
  %92 = load i32, ptr %9, align 4
  %93 = add i32 %92, %91
  store i32 %93, ptr %9, align 4
  br label %102

94:                                               ; preds = %52
  %95 = load ptr, ptr %6, align 8
  %96 = load ptr, ptr %7, align 8
  %97 = load ptr, ptr %8, align 8
  %98 = load i32, ptr %9, align 4
  %99 = call i32 @fRealTag(ptr noundef %95, ptr noundef %96, ptr noundef %97, i32 noundef %98, ptr noundef @.str.3065)
  store i32 %99, ptr %9, align 4
  br label %102

100:                                              ; preds = %52
  %101 = load i32, ptr %9, align 4
  store i32 %101, ptr %5, align 4
  store i32 1, ptr %15, align 4
  br label %120

102:                                              ; preds = %94, %69, %63
  %103 = load ptr, ptr %6, align 8
  %104 = load ptr, ptr %7, align 8
  %105 = load ptr, ptr %8, align 8
  %106 = load i32, ptr %9, align 4
  %107 = call i32 @fTagHeaderTree(ptr noundef %103, ptr noundef %104, ptr noundef %105, i32 noundef %106, ptr noundef %11, ptr noundef %12, ptr noundef %13)
  %108 = load i32, ptr %9, align 4
  %109 = add i32 %108, %107
  store i32 %109, ptr %9, align 4
  br label %112

110:                                              ; preds = %22
  %111 = load i32, ptr %9, align 4
  store i32 %111, ptr %5, align 4
  store i32 1, ptr %15, align 4
  br label %120

112:                                              ; preds = %102, %27
  %113 = load i32, ptr %9, align 4
  %114 = load i32, ptr %10, align 4
  %115 = icmp ule i32 %113, %114
  br i1 %115, label %116, label %117

116:                                              ; preds = %112
  br label %118

117:                                              ; preds = %112
  br label %17, !llvm.loop !34

118:                                              ; preds = %116, %17
  %119 = load i32, ptr %9, align 4
  store i32 %119, ptr %5, align 4
  store i32 1, ptr %15, align 4
  br label %120

120:                                              ; preds = %118, %110, %100
  call void @llvm.lifetime.end.p0(i64 8, ptr %14) #7
  call void @llvm.lifetime.end.p0(i64 4, ptr %13) #7
  call void @llvm.lifetime.end.p0(i64 1, ptr %12) #7
  call void @llvm.lifetime.end.p0(i64 1, ptr %11) #7
  call void @llvm.lifetime.end.p0(i64 4, ptr %10) #7
  %121 = load i32, ptr %5, align 4
  ret i32 %121
}