; Function Attrs: null_pointer_is_valid sspstrong uwtable
define internal fastcc i32 @fEventLogRecord(ptr noundef nonnull %0, ptr noundef %1, ptr noundef %2, i32 noundef %3) unnamed_addr #0 {
  %5 = alloca i8, align 1
  %6 = alloca i8, align 1
  %7 = alloca i32, align 4
  %8 = alloca i8, align 1
  %9 = alloca i8, align 1
  %10 = alloca i32, align 4
  call void @llvm.lifetime.start.p0(i64 1, ptr nonnull %8) #6
  call void @llvm.lifetime.start.p0(i64 1, ptr nonnull %9) #6
  call void @llvm.lifetime.start.p0(i64 4, ptr nonnull %10) #6
  br label %11

11:                                               ; preds = %47, %4
  %.0 = phi i32 [ %3, %4 ], [ %49, %47 ]
  %12 = tail call i32 @tvb_reported_length_remaining(ptr noundef nonnull %0, i32 noundef %.0)
  %13 = icmp sgt i32 %12, 0
  br i1 %13, label %14, label %50

14:                                               ; preds = %11
  %15 = tail call zeroext i8 @tvb_get_uint8(ptr noundef nonnull %0, i32 noundef %.0)
  %16 = lshr i8 %15, 4
  switch i8 %16, label %50 [
    i8 0, label %17
    i8 1, label %22
  ]

17:                                               ; preds = %14
  %18 = call fastcc i32 @fTagHeaderTree(ptr noundef %0, ptr noundef %1, ptr noundef %2, i32 noundef %.0, ptr noundef nonnull %8, ptr noundef nonnull %9, ptr noundef nonnull %10)
  %19 = add i32 %18, %.0
  %20 = tail call fastcc i32 @fDate(ptr noundef %0, ptr noundef %1, ptr noundef %2, i32 noundef %19, ptr noundef nonnull @.str.3055)
  %21 = tail call fastcc i32 @fTime(ptr noundef %0, ptr noundef %1, ptr noundef %2, i32 noundef %20, ptr noundef nonnull @.str.3056)
  br label %47

22:                                               ; preds = %14
  %23 = call fastcc i32 @fTagHeaderTree(ptr noundef %0, ptr noundef %1, ptr noundef %2, i32 noundef %.0, ptr noundef nonnull %8, ptr noundef nonnull %9, ptr noundef nonnull %10)
  %24 = add i32 %23, %.0
  %25 = tail call zeroext i8 @tvb_get_uint8(ptr noundef nonnull %0, i32 noundef %24)
  %26 = lshr i8 %25, 4
  switch i8 %26, label %50 [
    i8 0, label %27
    i8 1, label %29
    i8 2, label %37
  ]

27:                                               ; preds = %22
  %28 = tail call fastcc i32 @fBitStringTagVSBase(ptr noundef nonnull %0, ptr noundef %1, ptr noundef %2, i32 noundef %24, ptr noundef nonnull @.str.3063, ptr noundef nonnull @BACnetLogStatus, i1 noundef zeroext false)
  br label %47

29:                                               ; preds = %22
  %30 = load i32, ptr @ett_bacapp_value, align 4
  %31 = tail call ptr @proto_tree_add_subtree(ptr noundef %2, ptr noundef nonnull %0, i32 noundef %24, i32 noundef 1, i32 noundef %30, ptr noundef null, ptr noundef nonnull @.str.3064)
  %32 = call fastcc i32 @fTagHeaderTree(ptr noundef %0, ptr noundef %1, ptr noundef %31, i32 noundef %24, ptr noundef nonnull %8, ptr noundef nonnull %9, ptr noundef nonnull %10)
  %33 = add i32 %32, %24
  %34 = tail call fastcc i32 @fConfirmedEventNotificationRequest(ptr noundef %0, ptr noundef %1, ptr noundef %31, i32 noundef %33)
  %35 = call fastcc i32 @fTagHeaderTree(ptr noundef %0, ptr noundef %1, ptr noundef %31, i32 noundef %34, ptr noundef nonnull %8, ptr noundef nonnull %9, ptr noundef nonnull %10)
  %36 = add i32 %35, %34
  br label %47

37:                                               ; preds = %22
  call void @llvm.lifetime.start.p0(i64 1, ptr nonnull %5) #6
  call void @llvm.lifetime.start.p0(i64 1, ptr nonnull %6) #6
  call void @llvm.lifetime.start.p0(i64 4, ptr nonnull %7) #6
  %38 = call fastcc range(i32 1, 8) i32 @fTagHeaderTree(ptr noundef nonnull %0, ptr noundef %1, ptr noundef null, i32 noundef %24, ptr noundef nonnull %5, ptr noundef nonnull %6, ptr noundef nonnull %7)
  %39 = add i32 %38, %24
  %40 = tail call float @tvb_get_ntohieee_float(ptr noundef nonnull %0, i32 noundef %39)
  %41 = add nuw nsw i32 %38, 4
  %42 = load i32, ptr @ett_bacapp_tag, align 4
  %43 = fpext float %40 to double
  %44 = tail call ptr (ptr, ptr, i32, i32, i32, ptr, ptr, ...) @proto_tree_add_subtree_format(ptr noundef %2, ptr noundef nonnull %0, i32 noundef %24, i32 noundef %41, i32 noundef %42, ptr noundef null, ptr noundef nonnull @.str.2613, ptr noundef nonnull @.str.3065, double noundef %43)
  %45 = call fastcc i32 @fTagHeaderTree(ptr noundef nonnull %0, ptr noundef %1, ptr noundef %44, i32 noundef %24, ptr noundef nonnull %5, ptr noundef nonnull %6, ptr noundef nonnull %7)
  %46 = add i32 %39, 4
  call void @llvm.lifetime.end.p0(i64 4, ptr nonnull %7) #6
  call void @llvm.lifetime.end.p0(i64 1, ptr nonnull %6) #6
  call void @llvm.lifetime.end.p0(i64 1, ptr nonnull %5) #6
  br label %47

47:                                               ; preds = %27, %29, %37, %17
  %.3.sink67 = phi i32 [ %21, %17 ], [ %46, %37 ], [ %36, %29 ], [ %28, %27 ]
  %48 = call fastcc i32 @fTagHeaderTree(ptr noundef %0, ptr noundef %1, ptr noundef %2, i32 noundef %.3.sink67, ptr noundef nonnull %8, ptr noundef nonnull %9, ptr noundef nonnull %10)
  %49 = add i32 %48, %.3.sink67
  %.not = icmp ugt i32 %49, %.0
  br i1 %.not, label %11, label %50, !llvm.loop !121

50:                                               ; preds = %11, %47, %14, %22
  %.066 = phi i32 [ %24, %22 ], [ %.0, %14 ], [ %49, %47 ], [ %.0, %11 ]
  call void @llvm.lifetime.end.p0(i64 4, ptr nonnull %10) #6
  call void @llvm.lifetime.end.p0(i64 1, ptr nonnull %9) #6
  call void @llvm.lifetime.end.p0(i64 1, ptr nonnull %8) #6
  ret i32 %.066
}